; Function Attrs: mustprogress uwtable
define void @_ZN5ImGui11TableRemoveEP10ImGuiTable(ptr noundef %0) local_unnamed_addr #0 {
  %2 = load ptr, ptr @GImGui, align 8, !tbaa !3
  %3 = getelementptr inbounds nuw i8, ptr %2, i64 8680
  %4 = load ptr, ptr %3, align 8, !tbaa !165
  %5 = ptrtoint ptr %0 to i64
  %6 = ptrtoint ptr %4 to i64
  %7 = sub i64 %5, %6
  %8 = sdiv exact i64 %7, 592
  %9 = trunc i64 %8 to i32
  %10 = load i32, ptr %0, align 8, !tbaa !206
  %sext.i = shl i64 %8, 32
  %11 = ashr exact i64 %sext.i, 32
  %12 = getelementptr inbounds %struct.ImGuiTable, ptr %4, i64 %11
  tail call void @_ZN10ImGuiTableD2Ev(ptr noundef nonnull align 8 dereferenceable(587) %12) #5
  %13 = getelementptr inbounds nuw i8, ptr %2, i64 8704
  %14 = load i32, ptr %13, align 8, !tbaa !326
  %15 = load ptr, ptr %3, align 8, !tbaa !325
  %16 = getelementptr inbounds %struct.ImGuiTable, ptr %15, i64 %11
  store i32 %14, ptr %16, align 4, !tbaa !280
  store i32 %9, ptr %13, align 8, !tbaa !326
  %17 = getelementptr inbounds nuw i8, ptr %2, i64 8688
  tail call void @_ZN12ImGuiStorage6SetIntEji(ptr noundef nonnull align 8 dereferenceable(16) %17, i32 noundef %10, i32 noundef -1)
  %18 = getelementptr inbounds nuw i8, ptr %2, i64 8708
  %19 = load i32, ptr %18, align 4, !tbaa !330
  %20 = add nsw i32 %19, -1
  store i32 %20, ptr %18, align 4, !tbaa !330
  %21 = getelementptr inbounds nuw i8, ptr %2, i64 8720
  %22 = load ptr, ptr %21, align 8, !tbaa !272
  %23 = ashr exact i64 %sext.i, 30
  %24 = getelementptr inbounds i8, ptr %22, i64 %23
  store float -1.000000e+00, ptr %24, align 4, !tbaa !223
  ret void
}